target datalayout = "e-m:e-p270:32:32-p271:32:32-p272:64:64-i64:64-i128:128-f80:128-n8:16:32:64-S128"
target triple = "x86_64-pc-linux-gnu"

@__const.pkcs12_pbkdf_test.passwd = private unnamed_addr constant [10 x i8] c"\00s\00m\00e\00g\00\00", align 1
@__const.pkcs12_pbkdf_test.salt = private unnamed_addr constant [8 x i8] c"\0AX\CFdS\0D\82?", align 1
@__const.pkcs12_pbkdf_test.passwd2 = private unnamed_addr constant [12 x i8] c"\00q\00u\00e\00e\00g\00\00", align 1
@__const.pkcs12_pbkdf_test.salt2 = private unnamed_addr constant [8 x i8] c"\16\82\C0\FC[?~\C5", align 1
@__const.pkcs12_pbkdf_test.verify = private unnamed_addr constant [24 x i8] c"'\E9\0D~\D5\A1\C4\11\BA\87\8B\C0\90\F5\CE\BE^\9D_\E3\D6+s\AA", align 16
@__const.pkcs12_pbkdf_test.verify2 = private unnamed_addr constant [24 x i8] c"\90\1BIp\F0\94\F0\F8E\C0\F3\F3\13Y\18j5\E3g\FE\D3!\FD|", align 16

; Function Attrs: nounwind uwtable
define dso_local i32 @pkcs12_pbkdf_test() #0 {
  %1 = alloca i32, align 4
  %2 = alloca [10 x i8], align 1
  %3 = alloca [8 x i8], align 1
  %4 = alloca [12 x i8], align 1
  %5 = alloca [8 x i8], align 1
  %6 = alloca [64 x i8], align 16
  %7 = alloca [24 x i8], align 16
  %8 = alloca [24 x i8], align 16
  %9 = alloca i32, align 4
  %10 = alloca i32, align 4
  %11 = alloca i32, align 4
  %12 = alloca i32, align 4
  %13 = alloca i32, align 4
  call void @llvm.lifetime.start.p0(i64 10, ptr %2) #10
  call void @llvm.memcpy.p0.p0.i64(ptr align 1 %2, ptr align 1 @__const.pkcs12_pbkdf_test.passwd, i64 10, i1 false)
  call void @llvm.lifetime.start.p0(i64 8, ptr %3) #10
  call void @llvm.memcpy.p0.p0.i64(ptr align 1 %3, ptr align 1 @__const.pkcs12_pbkdf_test.salt, i64 8, i1 false)
  call void @llvm.lifetime.start.p0(i64 12, ptr %4) #10
  call void @llvm.memcpy.p0.p0.i64(ptr align 1 %4, ptr align 1 @__const.pkcs12_pbkdf_test.passwd2, i64 12, i1 false)
  call void @llvm.lifetime.start.p0(i64 8, ptr %5) #10
  call void @llvm.memcpy.p0.p0.i64(ptr align 1 %5, ptr align 1 @__const.pkcs12_pbkdf_test.salt2, i64 8, i1 false)
  call void @llvm.lifetime.start.p0(i64 64, ptr %6) #10
  call void @llvm.lifetime.start.p0(i64 24, ptr %7) #10
  call void @llvm.memcpy.p0.p0.i64(ptr align 16 %7, ptr align 16 @__const.pkcs12_pbkdf_test.verify, i64 24, i1 false)
  call void @llvm.lifetime.start.p0(i64 24, ptr %8) #10
  call void @llvm.memcpy.p0.p0.i64(ptr align 16 %8, ptr align 16 @__const.pkcs12_pbkdf_test.verify2, i64 24, i1 false)
  call void @llvm.lifetime.start.p0(i64 4, ptr %9) #10
  store i32 1, ptr %9, align 4, !tbaa !14
  call void @llvm.lifetime.start.p0(i64 4, ptr %10) #10
  store i32 24, ptr %10, align 4, !tbaa !14
  call void @llvm.lifetime.start.p0(i64 4, ptr %11) #10
  store i32 1, ptr %11, align 4, !tbaa !14
  call void @llvm.lifetime.start.p0(i64 4, ptr %12) #10
  br label %14

14:                                               ; preds = %0
  br label %15

15:                                               ; preds = %14
  br label %16

16:                                               ; preds = %15
  %17 = getelementptr inbounds [64 x i8], ptr %6, i64 0, i64 0
  %18 = getelementptr inbounds [10 x i8], ptr %2, i64 0, i64 0
  %19 = getelementptr inbounds [8 x i8], ptr %3, i64 0, i64 0
  %20 = load i32, ptr %11, align 4, !tbaa !14
  %21 = load i32, ptr %10, align 4, !tbaa !14
  %22 = load i32, ptr %9, align 4, !tbaa !14
  %23 = call i32 @wc_PKCS12_PBKDF(ptr noundef %17, ptr noundef %18, i32 noundef 10, ptr noundef %19, i32 noundef 8, i32 noundef %20, i32 noundef %21, i32 noundef 6, i32 noundef %22)
  store i32 %23, ptr %12, align 4, !tbaa !14
  %24 = load i32, ptr %12, align 4, !tbaa !14
  %25 = icmp slt i32 %24, 0
  br i1 %25, label %26, label %38

26:                                               ; preds = %16
  %27 = load i32, ptr %12, align 4, !tbaa !14
  %28 = sub nsw i32 0, %27
  %29 = zext i32 %28 to i64
  %30 = and i64 %29, 2047
  %31 = trunc i64 %30 to i32
  %32 = sext i32 %31 to i64
  %33 = mul nsw i64 %32, 100000
  %34 = add nsw i64 27058, %33
  %35 = add nsw i64 %34, 536870912
  %36 = sub nsw i64 0, %35
  %37 = trunc i64 %36 to i32
  store i32 %37, ptr %1, align 4
  store i32 1, ptr %13, align 4
  br label %97

38:                                               ; preds = %16
  %39 = getelementptr inbounds [64 x i8], ptr %6, i64 0, i64 0
  %40 = getelementptr inbounds [24 x i8], ptr %7, i64 0, i64 0
  %41 = load i32, ptr %10, align 4, !tbaa !14
  %42 = sext i32 %41 to i64
  %43 = call i32 @memcmp(ptr noundef %39, ptr noundef %40, i64 noundef %42) #11
  %44 = icmp ne i32 %43, 0
  br i1 %44, label %45, label %46

45:                                               ; preds = %38
  store i32 -27061, ptr %1, align 4
  store i32 1, ptr %13, align 4
  br label %97

46:                                               ; preds = %38
  store i32 1000, ptr %11, align 4, !tbaa !14
  %47 = getelementptr inbounds [64 x i8], ptr %6, i64 0, i64 0
  %48 = getelementptr inbounds [12 x i8], ptr %4, i64 0, i64 0
  %49 = getelementptr inbounds [8 x i8], ptr %5, i64 0, i64 0
  %50 = load i32, ptr %11, align 4, !tbaa !14
  %51 = load i32, ptr %10, align 4, !tbaa !14
  %52 = load i32, ptr %9, align 4, !tbaa !14
  %53 = call i32 @wc_PKCS12_PBKDF(ptr noundef %47, ptr noundef %48, i32 noundef 12, ptr noundef %49, i32 noundef 8, i32 noundef %50, i32 noundef %51, i32 noundef 6, i32 noundef %52)
  store i32 %53, ptr %12, align 4, !tbaa !14
  %54 = load i32, ptr %12, align 4, !tbaa !14
  %55 = icmp slt i32 %54, 0
  br i1 %55, label %56, label %68

56:                                               ; preds = %46
  %57 = load i32, ptr %12, align 4, !tbaa !14
  %58 = sub nsw i32 0, %57
  %59 = zext i32 %58 to i64
  %60 = and i64 %59, 2047
  %61 = trunc i64 %60 to i32
  %62 = sext i32 %61 to i64
  %63 = mul nsw i64 %62, 100000
  %64 = add nsw i64 27067, %63
  %65 = add nsw i64 %64, 536870912
  %66 = sub nsw i64 0, %65
  %67 = trunc i64 %66 to i32
  store i32 %67, ptr %1, align 4
  store i32 1, ptr %13, align 4
  br label %97

68:                                               ; preds = %46
  %69 = getelementptr inbounds [64 x i8], ptr %6, i64 0, i64 0
  %70 = getelementptr inbounds [12 x i8], ptr %4, i64 0, i64 0
  %71 = getelementptr inbounds [8 x i8], ptr %5, i64 0, i64 0
  %72 = load i32, ptr %11, align 4, !tbaa !14
  %73 = load i32, ptr %10, align 4, !tbaa !14
  %74 = load i32, ptr %9, align 4, !tbaa !14
  %75 = call i32 @wc_PKCS12_PBKDF_ex(ptr noundef %69, ptr noundef %70, i32 noundef 12, ptr noundef %71, i32 noundef 8, i32 noundef %72, i32 noundef %73, i32 noundef 6, i32 noundef %74, ptr noundef null)
  store i32 %75, ptr %12, align 4, !tbaa !14
  %76 = load i32, ptr %12, align 4, !tbaa !14
  %77 = icmp slt i32 %76, 0
  br i1 %77, label %78, label %90

78:                                               ; preds = %68
  %79 = load i32, ptr %12, align 4, !tbaa !14
  %80 = sub nsw i32 0, %79
  %81 = zext i32 %80 to i64
  %82 = and i64 %81, 2047
  %83 = trunc i64 %82 to i32
  %84 = sext i32 %83 to i64
  %85 = mul nsw i64 %84, 100000
  %86 = add nsw i64 27072, %85
  %87 = add nsw i64 %86, 536870912
  %88 = sub nsw i64 0, %87
  %89 = trunc i64 %88 to i32
  store i32 %89, ptr %1, align 4
  store i32 1, ptr %13, align 4
  br label %97

90:                                               ; preds = %68
  %91 = getelementptr inbounds [64 x i8], ptr %6, i64 0, i64 0
  %92 = getelementptr inbounds [24 x i8], ptr %8, i64 0, i64 0
  %93 = call i32 @memcmp(ptr noundef %91, ptr noundef %92, i64 noundef 24) #11
  %94 = icmp ne i32 %93, 0
  br i1 %94, label %95, label %96

95:                                               ; preds = %90
  store i32 -27075, ptr %1, align 4
  store i32 1, ptr %13, align 4
  br label %97

96:                                               ; preds = %90
  store i32 0, ptr %1, align 4
  store i32 1, ptr %13, align 4
  br label %97

97:                                               ; preds = %96, %95, %78, %56, %45, %26
  call void @llvm.lifetime.end.p0(i64 4, ptr %12) #10
  call void @llvm.lifetime.end.p0(i64 4, ptr %11) #10
  call void @llvm.lifetime.end.p0(i64 4, ptr %10) #10
  call void @llvm.lifetime.end.p0(i64 4, ptr %9) #10
  call void @llvm.lifetime.end.p0(i64 24, ptr %8) #10
  call void @llvm.lifetime.end.p0(i64 24, ptr %7) #10
  call void @llvm.lifetime.end.p0(i64 64, ptr %6) #10
  call void @llvm.lifetime.end.p0(i64 8, ptr %5) #10
  call void @llvm.lifetime.end.p0(i64 12, ptr %4) #10
  call void @llvm.lifetime.end.p0(i64 8, ptr %3) #10
  call void @llvm.lifetime.end.p0(i64 10, ptr %2) #10
  %98 = load i32, ptr %1, align 4
  ret i32 %98
}