; Function Attrs: nounwind uwtable
define dso_local range(i32 -741597984, 1) i32 @pkcs12_pbkdf_test() local_unnamed_addr #0 {
  %1 = alloca [10 x i8], align 1
  %2 = alloca [8 x i8], align 8
  %3 = alloca [12 x i8], align 1
  %4 = alloca [8 x i8], align 8
  %5 = alloca [64 x i8], align 16
  call void @llvm.lifetime.start.p0(i64 10, ptr nonnull %1) #19
  call void @llvm.memcpy.p0.p0.i64(ptr noundef nonnull align 1 dereferenceable(10) %1, ptr noundef nonnull align 1 dereferenceable(10) @__const.pkcs12_pbkdf_test.passwd, i64 10, i1 false)
  call void @llvm.lifetime.start.p0(i64 8, ptr nonnull %2) #19
  store i64 4576234823186601994, ptr %2, align 8
  call void @llvm.lifetime.start.p0(i64 12, ptr nonnull %3) #19
  call void @llvm.memcpy.p0.p0.i64(ptr noundef nonnull align 1 dereferenceable(12) %3, ptr noundef nonnull align 1 dereferenceable(12) @__const.pkcs12_pbkdf_test.passwd2, i64 12, i1 false)
  call void @llvm.lifetime.start.p0(i64 8, ptr nonnull %4) #19
  store i64 -4215862536857157098, ptr %4, align 8
  call void @llvm.lifetime.start.p0(i64 64, ptr nonnull %5) #19
  %6 = call i32 @wc_PKCS12_PBKDF(ptr noundef nonnull %5, ptr noundef nonnull %1, i32 noundef 10, ptr noundef nonnull %2, i32 noundef 8, i32 noundef 1, i32 noundef 24, i32 noundef 6, i32 noundef 1) #19
  %7 = icmp slt i32 %6, 0
  br i1 %7, label %8, label %12

8:                                                ; preds = %0
  %9 = sub nsw i32 0, %6
  %10 = and i32 %9, 2047
  %narrow.neg29 = mul nsw i32 %10, -100000
  %11 = add nsw i32 %narrow.neg29, -536897970
  br label %28

12:                                               ; preds = %0
  %bcmp = call i32 @bcmp(ptr noundef nonnull dereferenceable(24) %5, ptr noundef nonnull dereferenceable(24) @__const.pkcs12_pbkdf_test.verify, i64 24)
  %.not = icmp eq i32 %bcmp, 0
  br i1 %.not, label %13, label %28

13:                                               ; preds = %12
  %14 = call i32 @wc_PKCS12_PBKDF(ptr noundef nonnull %5, ptr noundef nonnull %3, i32 noundef 12, ptr noundef nonnull %4, i32 noundef 8, i32 noundef 1000, i32 noundef 24, i32 noundef 6, i32 noundef 1) #19
  %15 = icmp slt i32 %14, 0
  br i1 %15, label %16, label %20

16:                                               ; preds = %13
  %17 = sub nsw i32 0, %14
  %18 = and i32 %17, 2047
  %narrow.neg26 = mul nsw i32 %18, -100000
  %19 = add nsw i32 %narrow.neg26, -536897979
  br label %28

20:                                               ; preds = %13
  %21 = call i32 @wc_PKCS12_PBKDF_ex(ptr noundef nonnull %5, ptr noundef nonnull %3, i32 noundef 12, ptr noundef nonnull %4, i32 noundef 8, i32 noundef 1000, i32 noundef 24, i32 noundef 6, i32 noundef 1, ptr noundef null) #19
  %22 = icmp slt i32 %21, 0
  br i1 %22, label %23, label %27

23:                                               ; preds = %20
  %24 = sub nsw i32 0, %21
  %25 = and i32 %24, 2047
  %narrow.neg = mul nsw i32 %25, -100000
  %26 = add nsw i32 %narrow.neg, -536897984
  br label %28

27:                                               ; preds = %20
  %bcmp20 = call i32 @bcmp(ptr noundef nonnull dereferenceable(24) %5, ptr noundef nonnull dereferenceable(24) @__const.pkcs12_pbkdf_test.verify2, i64 24)
  %.not21 = icmp eq i32 %bcmp20, 0
  %. = select i1 %.not21, i32 0, i32 -27075
  br label %28

28:                                               ; preds = %27, %12, %23, %16, %8
  %.0 = phi i32 [ %11, %8 ], [ %19, %16 ], [ %26, %23 ], [ -27061, %12 ], [ %., %27 ]
  call void @llvm.lifetime.end.p0(i64 64, ptr nonnull %5) #19
  call void @llvm.lifetime.end.p0(i64 8, ptr nonnull %4) #19
  call void @llvm.lifetime.end.p0(i64 12, ptr nonnull %3) #19
  call void @llvm.lifetime.end.p0(i64 8, ptr nonnull %2) #19
  call void @llvm.lifetime.end.p0(i64 10, ptr nonnull %1) #19
  ret i32 %.0
}